; Function Attrs: mustprogress uwtable
define hidden void @_ZN7datalog8mk_slice14get_tail_conjsERKNS_4ruleE(ptr dead_on_unwind noalias writable sret(%class.ref_vector) align 8 initializes((0, 16)) %0, ptr noundef nonnull readonly align 8 captures(none) dereferenceable(168) %1, ptr noundef nonnull readonly align 8 captures(none) dereferenceable(80) %2) local_unnamed_addr #3 align 2 personality ptr @__gxx_personality_v0 {
  %4 = getelementptr inbounds nuw i8, ptr %1, i64 32
  %5 = load ptr, ptr %4, align 8, !tbaa !224
  %6 = ptrtoint ptr %5 to i64
  store i64 %6, ptr %0, align 8, !tbaa !212
  %7 = getelementptr inbounds nuw i8, ptr %0, i64 8
  store ptr null, ptr %7, align 8, !tbaa !230
  %8 = getelementptr inbounds nuw i8, ptr %2, i64 68
  %9 = load i32, ptr %8, align 4, !tbaa !257
  %10 = getelementptr inbounds nuw i8, ptr %2, i64 56
  %11 = load i32, ptr %10, align 8, !tbaa !299
  %12 = icmp ult i32 %9, %11
  br i1 %12, label %.lr.ph, label %._crit_edge

.lr.ph:                                           ; preds = %3
  %13 = getelementptr inbounds nuw i8, ptr %2, i64 80
  %14 = zext i32 %9 to i64
  br label %17

._crit_edge:                                      ; preds = %36, %3
  invoke void @_Z11flatten_andR10ref_vectorI4expr11ast_managerE(ptr noundef nonnull align 8 dereferenceable(16) %0)
          to label %48 unwind label %46

15:                                               ; preds = %35
  %16 = landingpad { ptr, i32 }
          cleanup
  br label %49

17:                                               ; preds = %.lr.ph, %36
  %18 = phi ptr [ null, %.lr.ph ], [ %37, %36 ]
  %indvars.iv = phi i64 [ %14, %.lr.ph ], [ %indvars.iv.next, %36 ]
  %19 = getelementptr inbounds nuw [0 x ptr], ptr %13, i64 0, i64 %indvars.iv
  %20 = load ptr, ptr %19, align 8, !tbaa !262
  %21 = ptrtoint ptr %20 to i64
  %22 = and i64 %21, -8
  %23 = inttoptr i64 %22 to ptr
  %.not.i.i.i.i = icmp eq i64 %22, 0
  br i1 %.not.i.i.i.i, label %_ZN15ref_vector_coreI4expr19ref_manager_wrapperIS0_11ast_managerEE7inc_refEPS0_.exit.i, label %24

24:                                               ; preds = %17
  %25 = getelementptr inbounds nuw i8, ptr %23, i64 8
  %26 = load i32, ptr %25, align 8, !tbaa !234
  %27 = add i32 %26, 1
  store i32 %27, ptr %25, align 8, !tbaa !234
  br label %_ZN15ref_vector_coreI4expr19ref_manager_wrapperIS0_11ast_managerEE7inc_refEPS0_.exit.i

_ZN15ref_vector_coreI4expr19ref_manager_wrapperIS0_11ast_managerEE7inc_refEPS0_.exit.i: ; preds = %24, %17
  %28 = icmp eq ptr %18, null
  br i1 %28, label %35, label %29

29:                                               ; preds = %_ZN15ref_vector_coreI4expr19ref_manager_wrapperIS0_11ast_managerEE7inc_refEPS0_.exit.i
  %30 = getelementptr inbounds i8, ptr %18, i64 -4
  %31 = load i32, ptr %30, align 4, !tbaa !231
  %32 = getelementptr inbounds i8, ptr %18, i64 -8
  %33 = load i32, ptr %32, align 4, !tbaa !231
  %34 = icmp eq i32 %31, %33
  br i1 %34, label %35, label %36

35:                                               ; preds = %29, %_ZN15ref_vector_coreI4expr19ref_manager_wrapperIS0_11ast_managerEE7inc_refEPS0_.exit.i
  invoke void @_ZN6vectorIP4exprLb0EjE13expand_vectorEv(ptr noundef nonnull align 8 dereferenceable(8) %7)
          to label %.noexc unwind label %15

.noexc:                                           ; preds = %35
  %.pre.i.i = load ptr, ptr %7, align 8, !tbaa !230
  %.phi.trans.insert.i.i = getelementptr inbounds i8, ptr %.pre.i.i, i64 -4
  %.pre2.i.i = load i32, ptr %.phi.trans.insert.i.i, align 4, !tbaa !231
  br label %36

36:                                               ; preds = %.noexc, %29
  %37 = phi ptr [ %.pre.i.i, %.noexc ], [ %18, %29 ]
  %38 = phi i32 [ %.pre2.i.i, %.noexc ], [ %31, %29 ]
  %39 = getelementptr inbounds i8, ptr %37, i64 -4
  %40 = zext i32 %38 to i64
  %41 = getelementptr inbounds nuw ptr, ptr %37, i64 %40
  store ptr %23, ptr %41, align 8, !tbaa !232
  %42 = add i32 %38, 1
  store i32 %42, ptr %39, align 4, !tbaa !231
  %indvars.iv.next = add nuw nsw i64 %indvars.iv, 1
  %43 = load i32, ptr %10, align 8, !tbaa !299
  %44 = zext i32 %43 to i64
  %45 = icmp samesign ult i64 %indvars.iv.next, %44
  br i1 %45, label %17, label %._crit_edge, !llvm.loop !300

46:                                               ; preds = %._crit_edge
  %47 = landingpad { ptr, i32 }
          cleanup
  br label %49

48:                                               ; preds = %._crit_edge
  ret void

49:                                               ; preds = %46, %15
  %.pn = phi { ptr, i32 } [ %16, %15 ], [ %47, %46 ]
  tail call void @_ZN15ref_vector_coreI4expr19ref_manager_wrapperIS0_11ast_managerEED2Ev(ptr noundef nonnull align 8 dereferenceable(16) %0) #20
  resume { ptr, i32 } %.pn
}